; Function Attrs: mustprogress nounwind uwtable
define internal fastcc void @"_ZZN4llvm19PGOCtxProfileWriterC1ERNS_11raw_ostreamESt8optionalIjEENK3$_1clEjNS_9StringRefE"(ptr nocapture noundef nonnull readonly align 8 dereferenceable(16) %0, i32 noundef %1, ptr %2, i64 %3) unnamed_addr #0 align 2 {
  %5 = getelementptr inbounds nuw i8, ptr %0, i64 8
  %6 = load ptr, ptr %5, align 8
  %7 = load ptr, ptr %0, align 8
  %8 = tail call noundef i64 @_ZNK4llvm15SmallVectorBaseIjE4sizeEv(ptr noundef nonnull align 8 dereferenceable(16) %7) #13
  %9 = getelementptr inbounds nuw i8, ptr %7, i64 8
  store i32 0, ptr %9, align 8
  %10 = load ptr, ptr %0, align 8
  %11 = tail call noundef i64 @_ZNK4llvm15SmallVectorBaseIjE4sizeEv(ptr noundef nonnull align 8 dereferenceable(16) %10) #13
  %12 = add i64 %11, 1
  %13 = tail call noundef i64 @_ZNK4llvm15SmallVectorBaseIjE8capacityEv(ptr noundef nonnull align 8 dereferenceable(16) %10) #13
  %.not.i.i.i = icmp ugt i64 %12, %13
  br i1 %.not.i.i.i, label %14, label %_ZN4llvm23SmallVectorTemplateBaseImLb1EE9push_backEm.exit

14:                                               ; preds = %4
  %15 = getelementptr inbounds i8, ptr %10, i64 16
  tail call void @_ZN4llvm15SmallVectorBaseIjE8grow_podEPvmm(ptr noundef nonnull align 8 dereferenceable(16) %10, ptr noundef nonnull %15, i64 noundef %12, i64 noundef 8) #13
  br label %_ZN4llvm23SmallVectorTemplateBaseImLb1EE9push_backEm.exit

_ZN4llvm23SmallVectorTemplateBaseImLb1EE9push_backEm.exit: ; preds = %4, %14
  %16 = zext nneg i32 %1 to i64
  %17 = load ptr, ptr %10, align 8
  %18 = tail call noundef i64 @_ZNK4llvm15SmallVectorBaseIjE4sizeEv(ptr noundef nonnull align 8 dereferenceable(16) %10) #13
  %19 = getelementptr inbounds i64, ptr %17, i64 %18
  store i64 %16, ptr %19, align 1
  %20 = tail call noundef i64 @_ZNK4llvm15SmallVectorBaseIjE4sizeEv(ptr noundef nonnull align 8 dereferenceable(16) %10) #13
  %21 = add i64 %20, 1
  tail call void @_ZN4llvm15SmallVectorBaseIjE8set_sizeEm(ptr noundef nonnull align 8 dereferenceable(16) %10, i64 noundef %21) #13
  %22 = load ptr, ptr %0, align 8
  %23 = load ptr, ptr %22, align 8
  %24 = tail call noundef i64 @_ZNK4llvm15SmallVectorBaseIjE4sizeEv(ptr noundef nonnull align 8 dereferenceable(16) %22) #13
  %25 = getelementptr inbounds i64, ptr %23, i64 %24
  %26 = getelementptr inbounds i8, ptr %2, i64 %3
  %27 = tail call noundef ptr @_ZN4llvm15SmallVectorImplImE6insertIPKcvEEPmS5_T_S6_(ptr noundef nonnull align 8 dereferenceable(16) %22, ptr noundef %25, ptr noundef %2, ptr noundef %26)
  %28 = load ptr, ptr %0, align 8
  tail call void @_ZN4llvm15BitstreamWriter10EmitRecordINS_11SmallVectorImLj16EEEEEvjRKT_j(ptr noundef nonnull align 8 dereferenceable(152) %6, i32 noundef 3, ptr noundef nonnull align 8 dereferenceable(144) %28, i32 noundef 0)
  ret void
}